; Function Attrs: nounwind sspstrong uwtable
define internal fastcc noundef zeroext i1 @postcopy_try_recover() unnamed_addr #0 {
entry:
  %0 = load ptr, ptr @current_incoming, align 8
  %tobool.not.i = icmp eq ptr %0, null
  br i1 %tobool.not.i, label %if.else.i, label %migration_incoming_get_current.exit

if.else.i:                                        ; preds = %entry
  tail call void @__assert_fail(ptr noundef nonnull @.str.6, ptr noundef nonnull @.str.2, i32 noundef 252, ptr noundef nonnull @__PRETTY_FUNCTION__.migration_incoming_get_current) #20
  unreachable

migration_incoming_get_current.exit:              ; preds = %entry
  %state = getelementptr inbounds nuw i8, ptr %0, i64 568
  %1 = load i32, ptr %state, align 8
  %cmp = icmp eq i32 %1, 6
  br i1 %cmp, label %if.then, label %return

if.then:                                          ; preds = %migration_incoming_get_current.exit
  %2 = load ptr, ptr %0, align 8
  %tobool.not = icmp eq ptr %2, null
  br i1 %tobool.not, label %if.else, label %if.end

if.else:                                          ; preds = %if.then
  tail call void @__assert_fail(ptr noundef nonnull @.str.56, ptr noundef nonnull @.str.2, i32 noundef 757, ptr noundef nonnull @__PRETTY_FUNCTION__.postcopy_try_recover) #20
  unreachable

if.end:                                           ; preds = %if.then
  tail call void @qemu_file_set_blocking(ptr noundef nonnull %2, i1 noundef zeroext true) #19
  %3 = load ptr, ptr %0, align 8
  %call4 = tail call ptr @qemu_file_get_return_path(ptr noundef %3) #19
  %to_src_file = getelementptr inbounds nuw i8, ptr %0, i64 280
  store ptr %call4, ptr %to_src_file, align 8
  tail call void @migrate_set_state(ptr noundef nonnull %state, i32 noundef 6, i32 noundef 7)
  %postcopy_pause_sem_dst = getelementptr inbounds nuw i8, ptr %0, i64 712
  tail call void @qemu_sem_post(ptr noundef nonnull %postcopy_pause_sem_dst) #19
  br label %return

return:                                           ; preds = %migration_incoming_get_current.exit, %if.end
  ret i1 %cmp
}